target datalayout = "e-m:e-p270:32:32-p271:32:32-p272:64:64-i64:64-i128:128-f80:128-n8:16:32:64-S128"
target triple = "x86_64-pc-linux-gnu"

%struct.Color = type { i8, i8, i8, i8 }
%struct.Matrix = type { float, float, float, float, float, float, float, float, float, float, float, float, float, float, float, float }

; Function Attrs: nounwind uwtable
define void @DrawRectangleLines(i32 noundef %0, i32 noundef %1, i32 noundef %2, i32 noundef %3, i32 %4) #2 {
  %6 = alloca %struct.Color, align 1
  %7 = alloca i32, align 4
  %8 = alloca i32, align 4
  %9 = alloca i32, align 4
  %10 = alloca i32, align 4
  %11 = alloca %struct.Matrix, align 4
  %12 = alloca float, align 4
  %13 = alloca float, align 4
  store i32 %4, ptr %6, align 1
  store i32 %0, ptr %7, align 4
  store i32 %1, ptr %8, align 4
  store i32 %2, ptr %9, align 4
  store i32 %3, ptr %10, align 4
  call void @llvm.lifetime.start.p0(i64 64, ptr %11) #8
  call void @rlGetMatrixTransform(ptr dead_on_unwind writable sret(%struct.Matrix) align 4 %11)
  call void @llvm.lifetime.start.p0(i64 4, ptr %12) #8
  %14 = getelementptr inbounds nuw %struct.Matrix, ptr %11, i32 0, i32 0
  %15 = load float, ptr %14, align 4
  %16 = fdiv float 5.000000e-01, %15
  store float %16, ptr %12, align 4
  call void @llvm.lifetime.start.p0(i64 4, ptr %13) #8
  %17 = getelementptr inbounds nuw %struct.Matrix, ptr %11, i32 0, i32 5
  %18 = load float, ptr %17, align 4
  %19 = fdiv float 5.000000e-01, %18
  store float %19, ptr %13, align 4
  call void @rlBegin(i32 noundef 1)
  %20 = getelementptr inbounds nuw %struct.Color, ptr %6, i32 0, i32 0
  %21 = load i8, ptr %20, align 1
  %22 = getelementptr inbounds nuw %struct.Color, ptr %6, i32 0, i32 1
  %23 = load i8, ptr %22, align 1
  %24 = getelementptr inbounds nuw %struct.Color, ptr %6, i32 0, i32 2
  %25 = load i8, ptr %24, align 1
  %26 = getelementptr inbounds nuw %struct.Color, ptr %6, i32 0, i32 3
  %27 = load i8, ptr %26, align 1
  call void @rlColor4ub(i8 noundef zeroext %21, i8 noundef zeroext %23, i8 noundef zeroext %25, i8 noundef zeroext %27)
  %28 = load i32, ptr %7, align 4
  %29 = sitofp i32 %28 to float
  %30 = load float, ptr %12, align 4
  %31 = fadd float %29, %30
  %32 = load i32, ptr %8, align 4
  %33 = sitofp i32 %32 to float
  %34 = load float, ptr %13, align 4
  %35 = fadd float %33, %34
  call void @rlVertex2f(float noundef %31, float noundef %35)
  %36 = load i32, ptr %7, align 4
  %37 = sitofp i32 %36 to float
  %38 = load i32, ptr %9, align 4
  %39 = sitofp i32 %38 to float
  %40 = fadd float %37, %39
  %41 = load float, ptr %12, align 4
  %42 = fsub float %40, %41
  %43 = load i32, ptr %8, align 4
  %44 = sitofp i32 %43 to float
  %45 = load float, ptr %13, align 4
  %46 = fadd float %44, %45
  call void @rlVertex2f(float noundef %42, float noundef %46)
  %47 = load i32, ptr %7, align 4
  %48 = sitofp i32 %47 to float
  %49 = load i32, ptr %9, align 4
  %50 = sitofp i32 %49 to float
  %51 = fadd float %48, %50
  %52 = load float, ptr %12, align 4
  %53 = fsub float %51, %52
  %54 = load i32, ptr %8, align 4
  %55 = sitofp i32 %54 to float
  %56 = load float, ptr %13, align 4
  %57 = fadd float %55, %56
  call void @rlVertex2f(float noundef %53, float noundef %57)
  %58 = load i32, ptr %7, align 4
  %59 = sitofp i32 %58 to float
  %60 = load i32, ptr %9, align 4
  %61 = sitofp i32 %60 to float
  %62 = fadd float %59, %61
  %63 = load float, ptr %12, align 4
  %64 = fsub float %62, %63
  %65 = load i32, ptr %8, align 4
  %66 = sitofp i32 %65 to float
  %67 = load i32, ptr %10, align 4
  %68 = sitofp i32 %67 to float
  %69 = fadd float %66, %68
  %70 = load float, ptr %13, align 4
  %71 = fsub float %69, %70
  call void @rlVertex2f(float noundef %64, float noundef %71)
  %72 = load i32, ptr %7, align 4
  %73 = sitofp i32 %72 to float
  %74 = load i32, ptr %9, align 4
  %75 = sitofp i32 %74 to float
  %76 = fadd float %73, %75
  %77 = load float, ptr %12, align 4
  %78 = fsub float %76, %77
  %79 = load i32, ptr %8, align 4
  %80 = sitofp i32 %79 to float
  %81 = load i32, ptr %10, align 4
  %82 = sitofp i32 %81 to float
  %83 = fadd float %80, %82
  %84 = load float, ptr %13, align 4
  %85 = fsub float %83, %84
  call void @rlVertex2f(float noundef %78, float noundef %85)
  %86 = load i32, ptr %7, align 4
  %87 = sitofp i32 %86 to float
  %88 = load float, ptr %12, align 4
  %89 = fadd float %87, %88
  %90 = load i32, ptr %8, align 4
  %91 = sitofp i32 %90 to float
  %92 = load i32, ptr %10, align 4
  %93 = sitofp i32 %92 to float
  %94 = fadd float %91, %93
  %95 = load float, ptr %13, align 4
  %96 = fsub float %94, %95
  call void @rlVertex2f(float noundef %89, float noundef %96)
  %97 = load i32, ptr %7, align 4
  %98 = sitofp i32 %97 to float
  %99 = load float, ptr %12, align 4
  %100 = fadd float %98, %99
  %101 = load i32, ptr %8, align 4
  %102 = sitofp i32 %101 to float
  %103 = load i32, ptr %10, align 4
  %104 = sitofp i32 %103 to float
  %105 = fadd float %102, %104
  %106 = load float, ptr %13, align 4
  %107 = fsub float %105, %106
  call void @rlVertex2f(float noundef %100, float noundef %107)
  %108 = load i32, ptr %7, align 4
  %109 = sitofp i32 %108 to float
  %110 = load float, ptr %12, align 4
  %111 = fadd float %109, %110
  %112 = load i32, ptr %8, align 4
  %113 = sitofp i32 %112 to float
  %114 = load float, ptr %13, align 4
  %115 = fadd float %113, %114
  call void @rlVertex2f(float noundef %111, float noundef %115)
  call void @rlEnd()
  call void @llvm.lifetime.end.p0(i64 4, ptr %13) #8
  call void @llvm.lifetime.end.p0(i64 4, ptr %12) #8
  call void @llvm.lifetime.end.p0(i64 64, ptr %11) #8
  ret void
}