; Function Attrs: nounwind uwtable
define void @DrawRectangleLines(i32 noundef %0, i32 noundef %1, i32 noundef %2, i32 noundef %3, i32 %4) local_unnamed_addr #7 {
  %6 = alloca %struct.Matrix, align 4
  %.sroa.0.0.extract.trunc = trunc i32 %4 to i8
  %.sroa.2.0.extract.shift = lshr i32 %4, 8
  %.sroa.2.0.extract.trunc = trunc i32 %.sroa.2.0.extract.shift to i8
  %.sroa.3.0.extract.shift = lshr i32 %4, 16
  %.sroa.3.0.extract.trunc = trunc i32 %.sroa.3.0.extract.shift to i8
  %.sroa.4.0.extract.shift = lshr i32 %4, 24
  %.sroa.4.0.extract.trunc = trunc nuw i32 %.sroa.4.0.extract.shift to i8
  call void @llvm.lifetime.start.p0(i64 64, ptr nonnull %6) #16
  call void @rlGetMatrixTransform(ptr dead_on_unwind nonnull writable sret(%struct.Matrix) align 4 %6) #16
  %7 = load float, ptr %6, align 4
  %8 = fdiv float 5.000000e-01, %7
  %9 = getelementptr inbounds nuw i8, ptr %6, i64 20
  %10 = load float, ptr %9, align 4
  %11 = fdiv float 5.000000e-01, %10
  call void @rlBegin(i32 noundef 1) #16
  call void @rlColor4ub(i8 noundef zeroext %.sroa.0.0.extract.trunc, i8 noundef zeroext %.sroa.2.0.extract.trunc, i8 noundef zeroext %.sroa.3.0.extract.trunc, i8 noundef zeroext %.sroa.4.0.extract.trunc) #16
  %12 = sitofp i32 %0 to float
  %13 = fadd float %8, %12
  %14 = sitofp i32 %1 to float
  %15 = fadd float %11, %14
  call void @rlVertex2f(float noundef %13, float noundef %15) #16
  %16 = sitofp i32 %2 to float
  %17 = fadd float %12, %16
  %18 = fsub float %17, %8
  call void @rlVertex2f(float noundef %18, float noundef %15) #16
  call void @rlVertex2f(float noundef %18, float noundef %15) #16
  %19 = sitofp i32 %3 to float
  %20 = fadd float %14, %19
  %21 = fsub float %20, %11
  call void @rlVertex2f(float noundef %18, float noundef %21) #16
  call void @rlVertex2f(float noundef %18, float noundef %21) #16
  call void @rlVertex2f(float noundef %13, float noundef %21) #16
  call void @rlVertex2f(float noundef %13, float noundef %21) #16
  call void @rlVertex2f(float noundef %13, float noundef %15) #16
  call void @rlEnd() #16
  call void @llvm.lifetime.end.p0(i64 64, ptr nonnull %6) #16
  ret void
}